; Function Attrs: nounwind uwtable
define internal ptr @_random_Random_getrandbits(ptr noundef captures(none) %0, ptr noundef %1) #0 {
  %3 = tail call i32 @PyLong_AsInt(ptr noundef %1) #8
  %4 = icmp eq i32 %3, -1
  br i1 %4, label %6, label %.split

.split:                                           ; preds = %2
  %5 = tail call fastcc ptr @_random_Random_getrandbits_impl(ptr noundef %0, i32 noundef %3)
  br label %9

6:                                                ; preds = %2
  %7 = tail call ptr @PyErr_Occurred() #8
  %.not = icmp eq ptr %7, null
  br i1 %.not, label %.split4, label %9

.split4:                                          ; preds = %6
  %8 = load ptr, ptr @PyExc_ValueError, align 8, !tbaa !14
  tail call void @PyErr_SetString(ptr noundef %8, ptr noundef nonnull @.str.15) #8
  br label %9

9:                                                ; preds = %.split, %.split4, %6
  %.0 = phi ptr [ null, %6 ], [ %5, %.split ], [ null, %.split4 ]
  ret ptr %.0
}